target datalayout = "e-m:e-p270:32:32-p271:32:32-p272:64:64-i64:64-i128:128-f80:128-n8:16:32:64-S128"
target triple = "x86_64-unknown-linux-gnu"

%struct.QTailQLink = type { ptr, ptr }
%struct.BlockDriverState = type { i32, i8, i8, i8, i8, i8, ptr, ptr, ptr, %struct.anon, i8, [4096 x i8], [4096 x i8], [4096 x i8], [16 x i8], ptr, [4096 x i8], %struct.BlockLimits, i32, i32, i32, i32, [32 x i8], %union.anon.0, %union.anon.1, %union.anon.2, i32, [16 x %struct.anon.3], ptr, %struct.anon.4, ptr, ptr, %struct.anon.5, ptr, ptr, i32, ptr, i64, i64, %struct.QemuMutex, %struct.anon.6, %struct.Stat64, i32, i32, i32, i32, i32, i32, %struct.QemuMutex, %struct.anon.7, %struct.CoQueue, i8, i32, i8, %struct.CoMutex, ptr, ptr }
%struct.anon = type { ptr }
%struct.BlockLimits = type { i32, i64, i32, i64, i32, i32, i32, i64, i32, i64, i64, i32, i8, i32, i32, i32, i32, i32, i32, i32 }
%union.anon.0 = type { %struct.QTailQLink }
%union.anon.1 = type { %struct.QTailQLink }
%union.anon.2 = type { %struct.QTailQLink }
%struct.anon.3 = type { ptr }
%struct.anon.4 = type { ptr }
%struct.anon.5 = type { ptr }
%struct.anon.6 = type { ptr }
%struct.Stat64 = type { i64 }
%struct.QemuMutex = type { %union.pthread_mutex_t, i8 }
%union.pthread_mutex_t = type { %struct.__pthread_mutex_s }
%struct.__pthread_mutex_s = type { i32, i32, i32, i32, i32, i16, i16, %struct.__pthread_internal_list }
%struct.__pthread_internal_list = type { ptr, ptr }
%struct.anon.7 = type { ptr }
%struct.CoQueue = type { %struct.anon.8 }
%struct.anon.8 = type { ptr, ptr }
%struct.CoMutex = type { i32, ptr, %struct.anon.9, %struct.anon.9, i32, i32, ptr }
%struct.anon.9 = type { ptr }
%struct.BlockDriver = type { ptr, i32, i8, i8, i8, i8, i8, i8, ptr, ptr, ptr, ptr, ptr, ptr, ptr, ptr, ptr, ptr, ptr, ptr, ptr, ptr, ptr, ptr, ptr, ptr, ptr, ptr, ptr, ptr, ptr, ptr, ptr, ptr, ptr, ptr, ptr, ptr, ptr, ptr, ptr, ptr, ptr, ptr, ptr, ptr, ptr, ptr, ptr, ptr, ptr, ptr, ptr, ptr, ptr, ptr, ptr, ptr, ptr, ptr, ptr, %struct.anon.10, ptr, ptr, ptr, ptr, ptr, ptr, ptr, ptr, ptr, ptr, ptr, ptr, ptr, ptr, ptr, ptr, ptr, ptr, ptr, ptr, ptr, ptr, ptr, ptr, ptr, ptr, ptr, ptr, ptr, ptr, ptr, ptr, ptr, ptr, ptr, ptr, ptr, ptr, ptr, ptr, ptr, ptr, ptr, ptr, ptr, ptr, ptr, ptr, ptr }
%struct.anon.10 = type { ptr, ptr }

@.str.6 = private unnamed_addr constant [22 x i8] c"qemu_in_main_thread()\00", align 1
@.str.7 = private unnamed_addr constant [25 x i8] c"../qemu/block/snapshot.c\00", align 1
@__PRETTY_FUNCTION__.bdrv_snapshot_delete = private unnamed_addr constant [83 x i8] c"int bdrv_snapshot_delete(BlockDriverState *, const char *, const char *, Error **)\00", align 1
@__func__.bdrv_snapshot_delete = private unnamed_addr constant [21 x i8] c"bdrv_snapshot_delete\00", align 1
@.str.16 = private unnamed_addr constant [26 x i8] c"Device '%s' has no medium\00", align 1
@.str.17 = private unnamed_addr constant [35 x i8] c"snapshot_id and name are both NULL\00", align 1
@.str.18 = private unnamed_addr constant [82 x i8] c"Block format '%s' used by device '%s' does not support internal snapshot deletion\00", align 1

; Function Attrs: nounwind sspstrong uwtable
define dso_local i32 @bdrv_snapshot_delete(ptr noundef %bs, ptr noundef %snapshot_id, ptr noundef %name, ptr noundef %errp) #0 {
entry:
  %retval = alloca i32, align 4
  %bs.addr = alloca ptr, align 8
  %snapshot_id.addr = alloca ptr, align 8
  %name.addr = alloca ptr, align 8
  %errp.addr = alloca ptr, align 8
  %drv = alloca ptr, align 8
  %fallback_bs = alloca ptr, align 8
  %ret = alloca i32, align 4
  store ptr %bs, ptr %bs.addr, align 8
  store ptr %snapshot_id, ptr %snapshot_id.addr, align 8
  store ptr %name, ptr %name.addr, align 8
  store ptr %errp, ptr %errp.addr, align 8
  %0 = load ptr, ptr %bs.addr, align 8
  %drv1 = getelementptr inbounds %struct.BlockDriverState, ptr %0, i32 0, i32 6
  %1 = load ptr, ptr %drv1, align 8
  store ptr %1, ptr %drv, align 8
  %2 = load ptr, ptr %bs.addr, align 8
  %call = call ptr @bdrv_snapshot_fallback(ptr noundef %2)
  store ptr %call, ptr %fallback_bs, align 8
  br label %do.body

do.body:                                          ; preds = %entry
  %call2 = call zeroext i1 @qemu_in_main_thread()
  br i1 %call2, label %if.then, label %if.else

if.then:                                          ; preds = %do.body
  br label %if.end

if.else:                                          ; preds = %do.body
  call void @__assert_fail(ptr noundef @.str.6, ptr noundef @.str.7, i32 noundef 357, ptr noundef @__PRETTY_FUNCTION__.bdrv_snapshot_delete) #6
  unreachable

if.end:                                           ; preds = %if.then
  br label %do.end

do.end:                                           ; preds = %if.end
  %3 = load ptr, ptr %drv, align 8
  %tobool = icmp ne ptr %3, null
  br i1 %tobool, label %if.end5, label %if.then3

if.then3:                                         ; preds = %do.end
  %4 = load ptr, ptr %errp.addr, align 8
  %5 = load ptr, ptr %bs.addr, align 8
  %call4 = call ptr @bdrv_get_device_name(ptr noundef %5)
  call void (ptr, ptr, i32, ptr, ptr, ...) @error_setg_internal(ptr noundef %4, ptr noundef @.str.7, i32 noundef 360, ptr noundef @__func__.bdrv_snapshot_delete, ptr noundef @.str.16, ptr noundef %call4)
  store i32 -123, ptr %retval, align 4
  br label %return

if.end5:                                          ; preds = %do.end
  %6 = load ptr, ptr %snapshot_id.addr, align 8
  %tobool6 = icmp ne ptr %6, null
  br i1 %tobool6, label %if.end9, label %land.lhs.true

land.lhs.true:                                    ; preds = %if.end5
  %7 = load ptr, ptr %name.addr, align 8
  %tobool7 = icmp ne ptr %7, null
  br i1 %tobool7, label %if.end9, label %if.then8

if.then8:                                         ; preds = %land.lhs.true
  %8 = load ptr, ptr %errp.addr, align 8
  call void (ptr, ptr, i32, ptr, ptr, ...) @error_setg_internal(ptr noundef %8, ptr noundef @.str.7, i32 noundef 364, ptr noundef @__func__.bdrv_snapshot_delete, ptr noundef @.str.17)
  store i32 -22, ptr %retval, align 4
  br label %return

if.end9:                                          ; preds = %land.lhs.true, %if.end5
  %9 = load ptr, ptr %bs.addr, align 8
  call void @bdrv_drained_begin(ptr noundef %9)
  %10 = load ptr, ptr %drv, align 8
  %bdrv_snapshot_delete = getelementptr inbounds %struct.BlockDriver, ptr %10, i32 0, i32 37
  %11 = load ptr, ptr %bdrv_snapshot_delete, align 8
  %tobool10 = icmp ne ptr %11, null
  br i1 %tobool10, label %if.then11, label %if.else14

if.then11:                                        ; preds = %if.end9
  %12 = load ptr, ptr %drv, align 8
  %bdrv_snapshot_delete12 = getelementptr inbounds %struct.BlockDriver, ptr %12, i32 0, i32 37
  %13 = load ptr, ptr %bdrv_snapshot_delete12, align 8
  %14 = load ptr, ptr %bs.addr, align 8
  %15 = load ptr, ptr %snapshot_id.addr, align 8
  %16 = load ptr, ptr %name.addr, align 8
  %17 = load ptr, ptr %errp.addr, align 8
  %call13 = call i32 %13(ptr noundef %14, ptr noundef %15, ptr noundef %16, ptr noundef %17)
  store i32 %call13, ptr %ret, align 4
  br label %if.end21

if.else14:                                        ; preds = %if.end9
  %18 = load ptr, ptr %fallback_bs, align 8
  %tobool15 = icmp ne ptr %18, null
  br i1 %tobool15, label %if.then16, label %if.else18

if.then16:                                        ; preds = %if.else14
  %19 = load ptr, ptr %fallback_bs, align 8
  %20 = load ptr, ptr %snapshot_id.addr, align 8
  %21 = load ptr, ptr %name.addr, align 8
  %22 = load ptr, ptr %errp.addr, align 8
  %call17 = call i32 @bdrv_snapshot_delete(ptr noundef %19, ptr noundef %20, ptr noundef %21, ptr noundef %22)
  store i32 %call17, ptr %ret, align 4
  br label %if.end20

if.else18:                                        ; preds = %if.else14
  %23 = load ptr, ptr %errp.addr, align 8
  %24 = load ptr, ptr %drv, align 8
  %format_name = getelementptr inbounds %struct.BlockDriver, ptr %24, i32 0, i32 0
  %25 = load ptr, ptr %format_name, align 8
  %26 = load ptr, ptr %bs.addr, align 8
  %call19 = call ptr @bdrv_get_device_name(ptr noundef %26)
  call void (ptr, ptr, i32, ptr, ptr, ...) @error_setg_internal(ptr noundef %23, ptr noundef @.str.7, i32 noundef 378, ptr noundef @__func__.bdrv_snapshot_delete, ptr noundef @.str.18, ptr noundef %25, ptr noundef %call19)
  store i32 -95, ptr %ret, align 4
  br label %if.end20

if.end20:                                         ; preds = %if.else18, %if.then16
  br label %if.end21

if.end21:                                         ; preds = %if.end20, %if.then11
  %27 = load ptr, ptr %bs.addr, align 8
  call void @bdrv_drained_end(ptr noundef %27)
  %28 = load i32, ptr %ret, align 4
  store i32 %28, ptr %retval, align 4
  br label %return

return:                                           ; preds = %if.end21, %if.then8, %if.then3
  %29 = load i32, ptr %retval, align 4
  ret i32 %29
}