; Function Attrs: nounwind sspstrong uwtable
define dso_local i32 @bdrv_snapshot_delete(ptr noundef %bs, ptr noundef %snapshot_id, ptr noundef %name, ptr noundef %errp) local_unnamed_addr #0 {
entry:
  %drv1 = getelementptr inbounds nuw i8, ptr %bs, i64 16
  %0 = load ptr, ptr %drv1, align 8
  %call = tail call fastcc ptr @bdrv_snapshot_fallback(ptr noundef %bs)
  %call2 = tail call zeroext i1 @qemu_in_main_thread() #6
  br i1 %call2, label %do.end, label %if.else

if.else:                                          ; preds = %entry
  tail call void @__assert_fail(ptr noundef nonnull @.str.6, ptr noundef nonnull @.str.7, i32 noundef 357, ptr noundef nonnull @__PRETTY_FUNCTION__.bdrv_snapshot_delete) #7
  unreachable

do.end:                                           ; preds = %entry
  %tobool.not = icmp eq ptr %0, null
  br i1 %tobool.not, label %if.then3, label %if.end5

if.then3:                                         ; preds = %do.end
  %call4 = tail call ptr @bdrv_get_device_name(ptr noundef nonnull %bs) #6
  tail call void (ptr, ptr, i32, ptr, ptr, ...) @error_setg_internal(ptr noundef %errp, ptr noundef nonnull @.str.7, i32 noundef 360, ptr noundef nonnull @__func__.bdrv_snapshot_delete, ptr noundef nonnull @.str.16, ptr noundef %call4) #6
  br label %return

if.end5:                                          ; preds = %do.end
  %tobool6 = icmp ne ptr %snapshot_id, null
  %tobool7 = icmp ne ptr %name, null
  %or.cond = or i1 %tobool6, %tobool7
  br i1 %or.cond, label %if.end9, label %if.then8

if.then8:                                         ; preds = %if.end5
  tail call void (ptr, ptr, i32, ptr, ptr, ...) @error_setg_internal(ptr noundef %errp, ptr noundef nonnull @.str.7, i32 noundef 364, ptr noundef nonnull @__func__.bdrv_snapshot_delete, ptr noundef nonnull @.str.17) #6
  br label %return

if.end9:                                          ; preds = %if.end5
  tail call void @bdrv_drained_begin(ptr noundef nonnull %bs) #6
  %bdrv_snapshot_delete = getelementptr inbounds nuw i8, ptr %0, i64 256
  %1 = load ptr, ptr %bdrv_snapshot_delete, align 8
  %tobool10.not = icmp eq ptr %1, null
  br i1 %tobool10.not, label %if.else14, label %if.then11

if.then11:                                        ; preds = %if.end9
  %call13 = tail call i32 %1(ptr noundef nonnull %bs, ptr noundef %snapshot_id, ptr noundef %name, ptr noundef %errp) #6
  br label %if.end21

if.else14:                                        ; preds = %if.end9
  %tobool15.not = icmp eq ptr %call, null
  br i1 %tobool15.not, label %if.else18, label %if.then16

if.then16:                                        ; preds = %if.else14
  %call17 = tail call i32 @bdrv_snapshot_delete(ptr noundef nonnull %call, ptr noundef %snapshot_id, ptr noundef %name, ptr noundef %errp)
  br label %if.end21

if.else18:                                        ; preds = %if.else14
  %2 = load ptr, ptr %0, align 8
  %call19 = tail call ptr @bdrv_get_device_name(ptr noundef nonnull %bs) #6
  tail call void (ptr, ptr, i32, ptr, ptr, ...) @error_setg_internal(ptr noundef %errp, ptr noundef nonnull @.str.7, i32 noundef 378, ptr noundef nonnull @__func__.bdrv_snapshot_delete, ptr noundef nonnull @.str.18, ptr noundef %2, ptr noundef %call19) #6
  br label %if.end21

if.end21:                                         ; preds = %if.then16, %if.else18, %if.then11
  %ret.0 = phi i32 [ %call13, %if.then11 ], [ %call17, %if.then16 ], [ -95, %if.else18 ]
  tail call void @bdrv_drained_end(ptr noundef nonnull %bs) #6
  br label %return

return:                                           ; preds = %if.end21, %if.then8, %if.then3
  %retval.0 = phi i32 [ %ret.0, %if.end21 ], [ -22, %if.then8 ], [ -123, %if.then3 ]
  ret i32 %retval.0
}